target datalayout = "e-m:e-p270:32:32-p271:32:32-p272:64:64-i64:64-i128:128-f80:128-n8:16:32:64-S128"
target triple = "x86_64-pc-linux-gnu"

%"class.icu_77::MaybeStackArray" = type <{ ptr, i32, i8, [40 x i8], [3 x i8] }>
%"class.icu_77::CharString" = type { %"class.icu_77::MaybeStackArray", i32, [4 x i8] }

@_ZN6icu_7715MaybeStackArrayIcLi40EED1Ev = weak_odr unnamed_addr alias void (ptr), ptr @_ZN6icu_7715MaybeStackArrayIcLi40EED2Ev

; Function Attrs: mustprogress nounwind uwtable
define weak_odr noundef ptr @_ZNK6icu_7715MaybeStackArrayIcLi40EE8getAliasEv(ptr noundef nonnull align 8 dereferenceable(53) %0) #0 comdat align 2 {
  %2 = alloca ptr, align 8
  store ptr %0, ptr %2, align 8, !tbaa !3
  %3 = load ptr, ptr %2, align 8
  %4 = getelementptr inbounds nuw %"class.icu_77::MaybeStackArray", ptr %3, i32 0, i32 0
  %5 = load ptr, ptr %4, align 8, !tbaa !8
  ret ptr %5
}

; Function Attrs: mustprogress nounwind uwtable
define linkonce_odr void @_ZN6icu_7710CharStringD2Ev(ptr noundef nonnull align 8 dereferenceable(60) %0) unnamed_addr #0 comdat align 2 {
  %2 = alloca ptr, align 8
  store ptr %0, ptr %2, align 8, !tbaa !26
  %3 = load ptr, ptr %2, align 8
  %4 = getelementptr inbounds nuw %"class.icu_77::CharString", ptr %3, i32 0, i32 0
  call void @_ZN6icu_7715MaybeStackArrayIcLi40EED1Ev(ptr noundef nonnull align 8 dereferenceable(53) %4) #10
  ret void
}

; Function Attrs: mustprogress nounwind uwtable
define linkonce_odr noundef ptr @_ZN6icu_7710CharString4dataEv(ptr noundef nonnull align 8 dereferenceable(60) %0) #0 comdat align 2 {
  %2 = alloca ptr, align 8
  store ptr %0, ptr %2, align 8, !tbaa !26
  %3 = load ptr, ptr %2, align 8
  %4 = getelementptr inbounds nuw %"class.icu_77::CharString", ptr %3, i32 0, i32 0
  %5 = call noundef ptr @_ZNK6icu_7715MaybeStackArrayIcLi40EE8getAliasEv(ptr noundef nonnull align 8 dereferenceable(53) %4)
  ret ptr %5
}

; Function Attrs: inlinehint mustprogress nounwind uwtable
define internal noundef signext i8 @_ZL9U_SUCCESS10UErrorCode(i32 noundef %0) #2 {
  %2 = alloca i32, align 4
  store i32 %0, ptr %2, align 4, !tbaa !15
  %3 = load i32, ptr %2, align 4, !tbaa !15
  %4 = icmp sle i32 %3, 0
  %5 = zext i1 %4 to i8
  ret i8 %5
}

; Function Attrs: mustprogress nounwind uwtable
define internal noundef i32 @_ZL10setOneCode11UScriptCodePS_iP10UErrorCode(i32 noundef %0, ptr noundef %1, i32 noundef %2, ptr noundef %3) #0 {
  %5 = alloca i32, align 4
  %6 = alloca i32, align 4
  %7 = alloca ptr, align 8
  %8 = alloca i32, align 4
  %9 = alloca ptr, align 8
  store i32 %0, ptr %6, align 4, !tbaa !24
  store ptr %1, ptr %7, align 8, !tbaa !22
  store i32 %2, ptr %8, align 4, !tbaa !14
  store ptr %3, ptr %9, align 8, !tbaa !22
  %10 = load ptr, ptr %9, align 8, !tbaa !22
  %11 = load i32, ptr %10, align 4, !tbaa !15
  %12 = call noundef signext i8 @_ZL9U_FAILURE10UErrorCode(i32 noundef %11)
  %13 = icmp ne i8 %12, 0
  br i1 %13, label %14, label %15

14:                                               ; preds = %4
  store i32 0, ptr %5, align 4
  br label %24

15:                                               ; preds = %4
  %16 = load i32, ptr %8, align 4, !tbaa !14
  %17 = icmp sgt i32 1, %16
  br i1 %17, label %18, label %20

18:                                               ; preds = %15
  %19 = load ptr, ptr %9, align 8, !tbaa !22
  store i32 15, ptr %19, align 4, !tbaa !15
  store i32 1, ptr %5, align 4
  br label %24

20:                                               ; preds = %15
  %21 = load i32, ptr %6, align 4, !tbaa !24
  %22 = load ptr, ptr %7, align 8, !tbaa !22
  %23 = getelementptr inbounds i32, ptr %22, i64 0
  store i32 %21, ptr %23, align 4, !tbaa !24
  store i32 1, ptr %5, align 4
  br label %24

24:                                               ; preds = %20, %18, %14
  %25 = load i32, ptr %5, align 4
  ret i32 %25
}

; Function Attrs: inlinehint mustprogress nounwind uwtable
define internal noundef signext i8 @_ZL9U_FAILURE10UErrorCode(i32 noundef %0) #2 {
  %2 = alloca i32, align 4
  store i32 %0, ptr %2, align 4, !tbaa !15
  %3 = load i32, ptr %2, align 4, !tbaa !15
  %4 = icmp sgt i32 %3, 0
  %5 = zext i1 %4 to i8
  ret i8 %5
}

; Function Attrs: mustprogress uwtable
define i32 @uscript_getCode_77(ptr noundef %0, ptr noundef %1, i32 noundef %2, ptr noundef %3) #1 personality ptr @__gxx_personality_v0 {
  %5 = alloca i32, align 4
  %6 = alloca ptr, align 8
  %7 = alloca ptr, align 8
  %8 = alloca i32, align 4
  %9 = alloca ptr, align 8
  %10 = alloca i8, align 1
  %11 = alloca i32, align 4
  %12 = alloca i32, align 4
  %13 = alloca i32, align 4
  %14 = alloca ptr, align 8
  %15 = alloca i32, align 4
  %16 = alloca %"class.icu_77::CharString", align 8
  %17 = alloca ptr, align 8
  %18 = alloca i32, align 4
  %19 = alloca i32, align 4
  store ptr %0, ptr %6, align 8, !tbaa !17
  store ptr %1, ptr %7, align 8, !tbaa !22
  store i32 %2, ptr %8, align 4, !tbaa !14
  store ptr %3, ptr %9, align 8, !tbaa !22
  call void @llvm.lifetime.start.p0(i64 1, ptr %10) #10
  call void @llvm.lifetime.start.p0(i64 4, ptr %11) #10
  call void @llvm.lifetime.start.p0(i64 4, ptr %12) #10
  %20 = load ptr, ptr %9, align 8, !tbaa !22
  %21 = load i32, ptr %20, align 4, !tbaa !15
  %22 = call noundef signext i8 @_ZL9U_FAILURE10UErrorCode(i32 noundef %21)
  %23 = icmp ne i8 %22, 0
  br i1 %23, label %24, label %25

24:                                               ; preds = %4
  store i32 0, ptr %5, align 4
  store i32 1, ptr %13, align 4
  br label %162

25:                                               ; preds = %4
  %26 = load ptr, ptr %6, align 8, !tbaa !17
  %27 = icmp eq ptr %26, null
  br i1 %27, label %37, label %28

28:                                               ; preds = %25
  %29 = load ptr, ptr %7, align 8, !tbaa !22
  %30 = icmp eq ptr %29, null
  br i1 %30, label %31, label %34

31:                                               ; preds = %28
  %32 = load i32, ptr %8, align 4, !tbaa !14
  %33 = icmp ne i32 %32, 0
  br i1 %33, label %37, label %39

34:                                               ; preds = %28
  %35 = load i32, ptr %8, align 4, !tbaa !14
  %36 = icmp slt i32 %35, 0
  br i1 %36, label %37, label %39

37:                                               ; preds = %34, %31, %25
  %38 = load ptr, ptr %9, align 8, !tbaa !22
  store i32 1, ptr %38, align 4, !tbaa !15
  store i32 0, ptr %5, align 4
  store i32 1, ptr %13, align 4
  br label %162

39:                                               ; preds = %34, %31
  store i8 0, ptr %10, align 1, !tbaa !23
  call void @llvm.lifetime.start.p0(i64 8, ptr %14) #10
  %40 = load ptr, ptr %6, align 8, !tbaa !17
  %41 = call noundef ptr @strrchr(ptr noundef %40, i32 noundef 45) #13
  store ptr %41, ptr %14, align 8, !tbaa !17
  %42 = load ptr, ptr %14, align 8, !tbaa !17
  %43 = icmp eq ptr %42, null
  br i1 %43, label %44, label %47

44:                                               ; preds = %39
  %45 = load ptr, ptr %6, align 8, !tbaa !17
  %46 = call noundef ptr @strrchr(ptr noundef %45, i32 noundef 95) #13
  store ptr %46, ptr %14, align 8, !tbaa !17
  br label %47

47:                                               ; preds = %44, %39
  %48 = load ptr, ptr %14, align 8, !tbaa !17
  %49 = icmp eq ptr %48, null
  br i1 %49, label %72, label %50

50:                                               ; preds = %47
  %51 = load ptr, ptr %14, align 8, !tbaa !17
  %52 = load ptr, ptr %6, align 8, !tbaa !17
  %53 = ptrtoint ptr %51 to i64
  %54 = ptrtoint ptr %52 to i64
  %55 = sub i64 %53, %54
  %56 = icmp eq i64 %55, 3
  br i1 %56, label %57, label %61

57:                                               ; preds = %50
  %58 = load ptr, ptr %6, align 8, !tbaa !17
  %59 = call i64 @strlen(ptr noundef %58) #13
  %60 = icmp ugt i64 %59, 8
  br i1 %60, label %72, label %61

61:                                               ; preds = %57, %50
  %62 = load ptr, ptr %14, align 8, !tbaa !17
  %63 = load ptr, ptr %6, align 8, !tbaa !17
  %64 = ptrtoint ptr %62 to i64
  %65 = ptrtoint ptr %63 to i64
  %66 = sub i64 %64, %65
  %67 = icmp eq i64 %66, 7
  br i1 %67, label %68, label %87

68:                                               ; preds = %61
  %69 = load ptr, ptr %6, align 8, !tbaa !17
  %70 = call i64 @strlen(ptr noundef %69) #13
  %71 = icmp eq i64 %70, 11
  br i1 %71, label %72, label %87

72:                                               ; preds = %68, %57, %47
  call void @llvm.lifetime.start.p0(i64 4, ptr %15) #10
  %73 = load ptr, ptr %6, align 8, !tbaa !17
  %74 = call i32 @u_getPropertyValueEnum_77(i32 noundef 4106, ptr noundef %73)
  store i32 %74, ptr %15, align 4, !tbaa !24
  %75 = load i32, ptr %15, align 4, !tbaa !24
  %76 = icmp ne i32 %75, -1
  br i1 %76, label %77, label %83

77:                                               ; preds = %72
  %78 = load i32, ptr %15, align 4, !tbaa !24
  %79 = load ptr, ptr %7, align 8, !tbaa !22
  %80 = load i32, ptr %8, align 4, !tbaa !14
  %81 = load ptr, ptr %9, align 8, !tbaa !22
  %82 = call noundef i32 @_ZL10setOneCode11UScriptCodePS_iP10UErrorCode(i32 noundef %78, ptr noundef %79, i32 noundef %80, ptr noundef %81)
  store i32 %82, ptr %5, align 4
  store i32 1, ptr %13, align 4
  br label %84

83:                                               ; preds = %72
  store i8 1, ptr %10, align 1, !tbaa !23
  store i32 0, ptr %13, align 4
  br label %84

84:                                               ; preds = %83, %77
  call void @llvm.lifetime.end.p0(i64 4, ptr %15) #10
  %85 = load i32, ptr %13, align 4
  switch i32 %85, label %161 [
    i32 0, label %86
  ]

86:                                               ; preds = %84
  br label %87

87:                                               ; preds = %86, %68, %61
  store i32 0, ptr %11, align 4, !tbaa !15
  %88 = load ptr, ptr %6, align 8, !tbaa !17
  %89 = load ptr, ptr %7, align 8, !tbaa !22
  %90 = load i32, ptr %8, align 4, !tbaa !14
  %91 = load ptr, ptr %9, align 8, !tbaa !22
  %92 = call noundef i32 @_ZL18getCodesFromLocalePKcP11UScriptCodeiP10UErrorCode(ptr noundef %88, ptr noundef %89, i32 noundef %90, ptr noundef %91)
  store i32 %92, ptr %12, align 4, !tbaa !14
  %93 = load ptr, ptr %9, align 8, !tbaa !22
  %94 = load i32, ptr %93, align 4, !tbaa !15
  %95 = call noundef signext i8 @_ZL9U_FAILURE10UErrorCode(i32 noundef %94)
  %96 = icmp ne i8 %95, 0
  br i1 %96, label %100, label %97

97:                                               ; preds = %87
  %98 = load i32, ptr %12, align 4, !tbaa !14
  %99 = icmp ne i32 %98, 0
  br i1 %99, label %100, label %102

100:                                              ; preds = %97, %87
  %101 = load i32, ptr %12, align 4, !tbaa !14
  store i32 %101, ptr %5, align 4
  store i32 1, ptr %13, align 4
  br label %161

102:                                              ; preds = %97
  call void @llvm.lifetime.start.p0(i64 64, ptr %16) #10
  %103 = load ptr, ptr %6, align 8, !tbaa !17
  call void @_Z27ulocimp_addLikelySubtags_77PKcR10UErrorCode(ptr dead_on_unwind writable sret(%"class.icu_77::CharString") align 8 %16, ptr noundef %103, ptr noundef nonnull align 4 dereferenceable(4) %11)
  %104 = load i32, ptr %11, align 4, !tbaa !15
  %105 = invoke noundef signext i8 @_ZL9U_SUCCESS10UErrorCode(i32 noundef %104)
          to label %106 unwind label %129

106:                                              ; preds = %102
  %107 = icmp ne i8 %105, 0
  br i1 %107, label %108, label %134

108:                                              ; preds = %106
  %109 = load i32, ptr %11, align 4, !tbaa !15
  %110 = icmp ne i32 %109, -124
  br i1 %110, label %111, label %134

111:                                              ; preds = %108
  %112 = invoke noundef ptr @_ZN6icu_7710CharString4dataEv(ptr noundef nonnull align 8 dereferenceable(60) %16)
          to label %113 unwind label %129

113:                                              ; preds = %111
  %114 = load ptr, ptr %7, align 8, !tbaa !22
  %115 = load i32, ptr %8, align 4, !tbaa !14
  %116 = load ptr, ptr %9, align 8, !tbaa !22
  %117 = invoke noundef i32 @_ZL18getCodesFromLocalePKcP11UScriptCodeiP10UErrorCode(ptr noundef %112, ptr noundef %114, i32 noundef %115, ptr noundef %116)
          to label %118 unwind label %129

118:                                              ; preds = %113
  store i32 %117, ptr %12, align 4, !tbaa !14
  %119 = load ptr, ptr %9, align 8, !tbaa !22
  %120 = load i32, ptr %119, align 4, !tbaa !15
  %121 = invoke noundef signext i8 @_ZL9U_FAILURE10UErrorCode(i32 noundef %120)
          to label %122 unwind label %129

122:                                              ; preds = %118
  %123 = icmp ne i8 %121, 0
  br i1 %123, label %127, label %124

124:                                              ; preds = %122
  %125 = load i32, ptr %12, align 4, !tbaa !14
  %126 = icmp ne i32 %125, 0
  br i1 %126, label %127, label %133

127:                                              ; preds = %124, %122
  %128 = load i32, ptr %12, align 4, !tbaa !14
  store i32 %128, ptr %5, align 4
  store i32 1, ptr %13, align 4
  br label %159

129:                                              ; preds = %118, %113, %111, %102
  %130 = landingpad { ptr, i32 }
          cleanup
  %131 = extractvalue { ptr, i32 } %130, 0
  store ptr %131, ptr %17, align 8
  %132 = extractvalue { ptr, i32 } %130, 1
  store i32 %132, ptr %18, align 4
  br label %160

133:                                              ; preds = %124
  br label %134

134:                                              ; preds = %133, %108, %106
  %135 = load i8, ptr %10, align 1, !tbaa !23
  %136 = icmp ne i8 %135, 0
  br i1 %136, label %158, label %137

137:                                              ; preds = %134
  call void @llvm.lifetime.start.p0(i64 4, ptr %19) #10
  %138 = load ptr, ptr %6, align 8, !tbaa !17
  %139 = invoke i32 @u_getPropertyValueEnum_77(i32 noundef 4106, ptr noundef %138)
          to label %140 unwind label %150

140:                                              ; preds = %137
  store i32 %139, ptr %19, align 4, !tbaa !24
  %141 = load i32, ptr %19, align 4, !tbaa !24
  %142 = icmp ne i32 %141, -1
  br i1 %142, label %143, label %154

143:                                              ; preds = %140
  %144 = load i32, ptr %19, align 4, !tbaa !24
  %145 = load ptr, ptr %7, align 8, !tbaa !22
  %146 = load i32, ptr %8, align 4, !tbaa !14
  %147 = load ptr, ptr %9, align 8, !tbaa !22
  %148 = invoke noundef i32 @_ZL10setOneCode11UScriptCodePS_iP10UErrorCode(i32 noundef %144, ptr noundef %145, i32 noundef %146, ptr noundef %147)
          to label %149 unwind label %150

149:                                              ; preds = %143
  store i32 %148, ptr %5, align 4
  store i32 1, ptr %13, align 4
  br label %155

150:                                              ; preds = %143, %137
  %151 = landingpad { ptr, i32 }
          cleanup
  %152 = extractvalue { ptr, i32 } %151, 0
  store ptr %152, ptr %17, align 8
  %153 = extractvalue { ptr, i32 } %151, 1
  store i32 %153, ptr %18, align 4
  call void @llvm.lifetime.end.p0(i64 4, ptr %19) #10
  br label %160

154:                                              ; preds = %140
  store i32 0, ptr %13, align 4
  br label %155

155:                                              ; preds = %154, %149
  call void @llvm.lifetime.end.p0(i64 4, ptr %19) #10
  %156 = load i32, ptr %13, align 4
  switch i32 %156, label %159 [
    i32 0, label %157
  ]

157:                                              ; preds = %155
  br label %158

158:                                              ; preds = %157, %134
  store i32 0, ptr %5, align 4
  store i32 1, ptr %13, align 4
  br label %159

159:                                              ; preds = %158, %155, %127
  call void @_ZN6icu_7710CharStringD2Ev(ptr noundef nonnull align 8 dereferenceable(60) %16) #10
  call void @llvm.lifetime.end.p0(i64 64, ptr %16) #10
  br label %161

160:                                              ; preds = %150, %129
  call void @_ZN6icu_7710CharStringD2Ev(ptr noundef nonnull align 8 dereferenceable(60) %16) #10
  call void @llvm.lifetime.end.p0(i64 64, ptr %16) #10
  call void @llvm.lifetime.end.p0(i64 8, ptr %14) #10
  call void @llvm.lifetime.end.p0(i64 4, ptr %12) #10
  call void @llvm.lifetime.end.p0(i64 4, ptr %11) #10
  call void @llvm.lifetime.end.p0(i64 1, ptr %10) #10
  br label %164

161:                                              ; preds = %159, %100, %84
  call void @llvm.lifetime.end.p0(i64 8, ptr %14) #10
  br label %162

162:                                              ; preds = %161, %37, %24
  call void @llvm.lifetime.end.p0(i64 4, ptr %12) #10
  call void @llvm.lifetime.end.p0(i64 4, ptr %11) #10
  call void @llvm.lifetime.end.p0(i64 1, ptr %10) #10
  %163 = load i32, ptr %5, align 4
  ret i32 %163

164:                                              ; preds = %160
  %165 = load ptr, ptr %17, align 8
  %166 = load i32, ptr %18, align 4
  %167 = insertvalue { ptr, i32 } poison, ptr %165, 0
  %168 = insertvalue { ptr, i32 } %167, i32 %166, 1
  resume { ptr, i32 } %168
}