; Function Attrs: mustprogress uwtable
define range(i32 0, 4) i32 @uscript_getCode_77(ptr noundef %0, ptr noundef writeonly %1, i32 noundef %2, ptr noundef %3) local_unnamed_addr #1 personality ptr @__gxx_personality_v0 {
  %5 = alloca i32, align 4
  %6 = alloca %"class.icu_77::CharString", align 8
  call void @llvm.lifetime.start.p0(i64 4, ptr nonnull %5) #13
  %7 = load i32, ptr %3, align 4, !tbaa !13
  %8 = icmp slt i32 %7, 1
  br i1 %8, label %9, label %_ZL10setOneCode11UScriptCodePS_iP10UErrorCode.exit.thread

9:                                                ; preds = %4
  %10 = icmp eq ptr %0, null
  br i1 %10, label %16, label %11

11:                                               ; preds = %9
  %12 = icmp eq ptr %1, null
  br i1 %12, label %13, label %14

13:                                               ; preds = %11
  %.not64 = icmp eq i32 %2, 0
  br i1 %.not64, label %17, label %16

14:                                               ; preds = %11
  %15 = icmp slt i32 %2, 0
  br i1 %15, label %16, label %17

16:                                               ; preds = %14, %13, %9
  store i32 1, ptr %3, align 4, !tbaa !13
  br label %_ZL10setOneCode11UScriptCodePS_iP10UErrorCode.exit.thread

17:                                               ; preds = %14, %13
  %18 = tail call noundef ptr @strrchr(ptr noundef nonnull dereferenceable(1) %0, i32 noundef 45) #16
  %19 = icmp eq ptr %18, null
  br i1 %19, label %20, label %.thread

20:                                               ; preds = %17
  %21 = tail call noundef ptr @strrchr(ptr noundef nonnull dereferenceable(1) %0, i32 noundef 95) #16
  %22 = icmp eq ptr %21, null
  br i1 %22, label %32, label %.thread

.thread:                                          ; preds = %17, %20
  %.05772 = phi ptr [ %21, %20 ], [ %18, %17 ]
  %23 = ptrtoint ptr %.05772 to i64
  %24 = ptrtoint ptr %0 to i64
  %25 = sub i64 %23, %24
  switch i64 %25, label %_ZL10setOneCode11UScriptCodePS_iP10UErrorCode.exit [
    i64 3, label %26
    i64 7, label %29
  ]

26:                                               ; preds = %.thread
  %27 = tail call i64 @strlen(ptr noundef nonnull dereferenceable(1) %0) #16
  %28 = icmp ugt i64 %27, 8
  br i1 %28, label %32, label %_ZL10setOneCode11UScriptCodePS_iP10UErrorCode.exit

29:                                               ; preds = %.thread
  %30 = tail call i64 @strlen(ptr noundef nonnull dereferenceable(1) %0) #16
  %31 = icmp eq i64 %30, 11
  br i1 %31, label %32, label %_ZL10setOneCode11UScriptCodePS_iP10UErrorCode.exit

32:                                               ; preds = %29, %26, %20
  %33 = tail call i32 @u_getPropertyValueEnum_77(i32 noundef 4106, ptr noundef nonnull %0)
  %.not65 = icmp eq i32 %33, -1
  br i1 %.not65, label %_ZL10setOneCode11UScriptCodePS_iP10UErrorCode.exit, label %34

34:                                               ; preds = %32
  %35 = load i32, ptr %3, align 4, !tbaa !13
  %36 = icmp slt i32 %35, 1
  br i1 %36, label %37, label %_ZL10setOneCode11UScriptCodePS_iP10UErrorCode.exit.thread

37:                                               ; preds = %34
  %38 = icmp eq i32 %2, 0
  br i1 %38, label %39, label %40

39:                                               ; preds = %37
  store i32 15, ptr %3, align 4, !tbaa !13
  br label %_ZL10setOneCode11UScriptCodePS_iP10UErrorCode.exit.thread

40:                                               ; preds = %37
  store i32 %33, ptr %1, align 4, !tbaa !15
  br label %_ZL10setOneCode11UScriptCodePS_iP10UErrorCode.exit.thread

_ZL10setOneCode11UScriptCodePS_iP10UErrorCode.exit: ; preds = %32, %26, %.thread, %29
  %.not66 = phi i1 [ true, %29 ], [ true, %.thread ], [ true, %26 ], [ false, %32 ]
  store i32 0, ptr %5, align 4, !tbaa !13
  %41 = tail call fastcc noundef i32 @_ZL18getCodesFromLocalePKcP11UScriptCodeiP10UErrorCode(ptr noundef nonnull %0, ptr noundef %1, i32 noundef %2, ptr noundef nonnull %3)
  %42 = load i32, ptr %3, align 4, !tbaa !13
  %43 = icmp sgt i32 %42, 0
  %44 = icmp ne i32 %41, 0
  %or.cond = or i1 %44, %43
  br i1 %or.cond, label %_ZL10setOneCode11UScriptCodePS_iP10UErrorCode.exit.thread, label %45

45:                                               ; preds = %_ZL10setOneCode11UScriptCodePS_iP10UErrorCode.exit
  call void @llvm.lifetime.start.p0(i64 64, ptr nonnull %6) #13
  call void @_Z27ulocimp_addLikelySubtags_77PKcR10UErrorCode(ptr dead_on_unwind nonnull writable sret(%"class.icu_77::CharString") align 8 %6, ptr noundef nonnull %0, ptr noundef nonnull align 4 dereferenceable(4) %5)
  %46 = load i32, ptr %5, align 4, !tbaa !13
  %47 = icmp slt i32 %46, 1
  %48 = icmp ne i32 %46, -124
  %or.cond4 = and i1 %47, %48
  br i1 %or.cond4, label %49, label %58

49:                                               ; preds = %45
  %50 = load ptr, ptr %6, align 8, !tbaa !3
  %51 = invoke fastcc noundef i32 @_ZL18getCodesFromLocalePKcP11UScriptCodeiP10UErrorCode(ptr noundef %50, ptr noundef %1, i32 noundef %2, ptr noundef nonnull %3)
          to label %52 unwind label %56

52:                                               ; preds = %49
  %53 = load i32, ptr %3, align 4, !tbaa !13
  %54 = icmp slt i32 %53, 1
  %55 = icmp eq i32 %51, 0
  %or.cond6.not77 = and i1 %55, %54
  %brmerge.not = and i1 %or.cond6.not77, %.not66
  br i1 %brmerge.not, label %59, label %_ZL10setOneCode11UScriptCodePS_iP10UErrorCode.exit70

56:                                               ; preds = %49
  %57 = landingpad { ptr, i32 }
          cleanup
  br label %71

58:                                               ; preds = %45
  br i1 %.not66, label %59, label %_ZL10setOneCode11UScriptCodePS_iP10UErrorCode.exit70

59:                                               ; preds = %52, %58
  %60 = invoke i32 @u_getPropertyValueEnum_77(i32 noundef 4106, ptr noundef nonnull %0)
          to label %61 unwind label %69

61:                                               ; preds = %59
  %.not68 = icmp eq i32 %60, -1
  br i1 %.not68, label %_ZL10setOneCode11UScriptCodePS_iP10UErrorCode.exit70, label %62

62:                                               ; preds = %61
  %63 = load i32, ptr %3, align 4, !tbaa !13
  %64 = icmp slt i32 %63, 1
  br i1 %64, label %65, label %_ZL10setOneCode11UScriptCodePS_iP10UErrorCode.exit70

65:                                               ; preds = %62
  %66 = icmp eq i32 %2, 0
  br i1 %66, label %67, label %68

67:                                               ; preds = %65
  store i32 15, ptr %3, align 4, !tbaa !13
  br label %_ZL10setOneCode11UScriptCodePS_iP10UErrorCode.exit70

68:                                               ; preds = %65
  store i32 %60, ptr %1, align 4, !tbaa !15
  br label %_ZL10setOneCode11UScriptCodePS_iP10UErrorCode.exit70

69:                                               ; preds = %59
  %70 = landingpad { ptr, i32 }
          cleanup
  br label %71

_ZL10setOneCode11UScriptCodePS_iP10UErrorCode.exit70: ; preds = %52, %62, %67, %68, %58, %61
  %.4 = phi i32 [ %51, %52 ], [ 0, %61 ], [ 0, %58 ], [ 0, %62 ], [ 1, %68 ], [ 1, %67 ]
  call void @_ZN6icu_7715MaybeStackArrayIcLi40EED1Ev(ptr noundef nonnull align 8 dereferenceable(60) %6) #13
  call void @llvm.lifetime.end.p0(i64 64, ptr nonnull %6) #13
  br label %_ZL10setOneCode11UScriptCodePS_iP10UErrorCode.exit.thread

71:                                               ; preds = %69, %56
  %.pn = phi { ptr, i32 } [ %70, %69 ], [ %57, %56 ]
  call void @_ZN6icu_7715MaybeStackArrayIcLi40EED1Ev(ptr noundef nonnull align 8 dereferenceable(60) %6) #13
  call void @llvm.lifetime.end.p0(i64 64, ptr nonnull %6) #13
  call void @llvm.lifetime.end.p0(i64 4, ptr nonnull %5) #13
  resume { ptr, i32 } %.pn

_ZL10setOneCode11UScriptCodePS_iP10UErrorCode.exit.thread: ; preds = %34, %39, %40, %_ZL10setOneCode11UScriptCodePS_iP10UErrorCode.exit70, %_ZL10setOneCode11UScriptCodePS_iP10UErrorCode.exit, %4, %16
  %.0 = phi i32 [ 0, %16 ], [ 0, %4 ], [ %.4, %_ZL10setOneCode11UScriptCodePS_iP10UErrorCode.exit70 ], [ %41, %_ZL10setOneCode11UScriptCodePS_iP10UErrorCode.exit ], [ 0, %34 ], [ 1, %40 ], [ 1, %39 ]
  call void @llvm.lifetime.end.p0(i64 4, ptr nonnull %5) #13
  ret i32 %.0
}